; Function Attrs: nounwind uwtable
define noalias nonnull ptr @l_Lake_Job_instPure___rarg(ptr noundef %0) #1 {
  %2 = load ptr, ptr @l_Lake_Job_instPure___rarg___closed__2, align 8, !tbaa !10
  tail call void @lean_inc_heartbeat() #8
  %3 = tail call noalias ptr @mi_malloc_small(i64 noundef 24) #8
  %4 = icmp eq ptr %3, null
  br i1 %4, label %5, label %lean_alloc_ctor.exit

5:                                                ; preds = %1
  tail call void @lean_internal_panic_out_of_memory() #9
  unreachable

lean_alloc_ctor.exit:                             ; preds = %1
  %6 = getelementptr inbounds nuw i8, ptr %3, i64 4
  store i32 1, ptr %3, align 4, !tbaa !4
  store i32 131096, ptr %6, align 4
  %7 = getelementptr inbounds nuw i8, ptr %3, i64 8
  store ptr %0, ptr %7, align 8, !tbaa !10
  %8 = getelementptr inbounds nuw i8, ptr %3, i64 16
  store ptr %2, ptr %8, align 8, !tbaa !10
  %9 = tail call ptr @lean_task_pure(ptr noundef nonnull %3) #8
  %10 = load ptr, ptr @l_Lake_instInhabitedJob___closed__3, align 8, !tbaa !10
  tail call void @lean_inc_heartbeat() #8
  %11 = tail call noalias ptr @mi_malloc_small(i64 noundef 40) #8
  %12 = icmp eq ptr %11, null
  br i1 %12, label %13, label %lean_alloc_ctor.exit13

13:                                               ; preds = %lean_alloc_ctor.exit
  tail call void @lean_internal_panic_out_of_memory() #9
  unreachable

lean_alloc_ctor.exit13:                           ; preds = %lean_alloc_ctor.exit
  %14 = getelementptr inbounds nuw i8, ptr %11, i64 4
  %15 = getelementptr inbounds nuw i8, ptr %11, i64 32
  store i64 0, ptr %15, align 8, !tbaa !17
  store i32 1, ptr %11, align 4, !tbaa !4
  store i32 196648, ptr %14, align 4
  %16 = getelementptr inbounds nuw i8, ptr %11, i64 8
  store ptr %9, ptr %16, align 8, !tbaa !10
  %17 = getelementptr inbounds nuw i8, ptr %11, i64 16
  store ptr inttoptr (i64 1 to ptr), ptr %17, align 8, !tbaa !10
  %18 = getelementptr inbounds nuw i8, ptr %11, i64 24
  store ptr %10, ptr %18, align 8, !tbaa !10
  ret ptr %11
}